(dp0
S'February 07'
p1
(dp2
S'neg'
p3
F0.07939106145251397
sS'neu'
p4
F0.8033798882681563
sS'pos'
p5
F0.11726256983240223
sS'compound'
p6
F0.08399497206703907
ssS'January 09'
p7
(dp8
g3
F0.0643586956521739
sg4
F0.8299782608695653
sg5
F0.10568478260869568
sg6
F0.1426423913043479
ssS'February 27'
p9
(dp10
g3
F0.05080769230769233
sg4
F0.8085384615384619
sg5
F0.14063461538461544
sg6
F0.11362788461538464
ssS'February 14'
p11
(dp12
g3
F0.058285714285714274
sg4
F0.8182971428571428
sg5
F0.12344000000000001
sg6
F0.13035485714285722
ssS'December 13'
p13
(dp14
g3
F0.06823560209424083
sg4
F0.8314816753926706
sg5
F0.10030366492146602
sg6
F0.10547958115183251
ssS'December 12'
p15
(dp16
g3
F0.06034269662921346
sg4
F0.8523539325842693
sg5
F0.08728651685393261
sg6
F0.12065617977528088
ssS'February 18'
p17
(dp18
g3
F0.07280821917808218
sg4
F0.8354657534246576
sg5
F0.09178082191780822
sg6
F0.11171232876712331
ssS'December 10'
p19
(dp20
g3
F0.06386379928315414
sg4
F0.8252401433691756
sg5
F0.11086738351254483
sg6
F0.12007168458781355
ssS'December 17'
p21
(dp22
g3
F0.06504678362573096
sg4
F0.8387368421052632
sg5
F0.09623976608187133
sg6
F0.134959649122807
ssS'December 16'
p23
(dp24
g3
F0.04236196319018404
sg4
F0.8716134969325156
sg5
F0.08602453987730059
sg6
F0.1011355828220859
ssS'December 15'
p25
(dp26
g3
F0.05547321428571427
sg4
F0.86175
sg5
F0.08278571428571425
sg6
F0.12881071428571428
ssS'December 14'
p27
(dp28
g3
F0.06943518518518518
sg4
F0.8554074074074072
sg5
F0.07516666666666667
sg6
F0.10107407407407404
ssS'February 12'
p29
(dp30
g3
F0.0715979381443299
sg4
F0.8038453608247424
sg5
F0.12454639175257733
sg6
F0.07960721649484537
ssS'February 13'
p31
(dp32
g3
F0.06704807692307692
sg4
F0.8428846153846153
sg5
F0.09008653846153851
sg6
F0.021699038461538474
ssS'December 19'
p33
(dp34
g3
F0.07564649681528662
sg4
F0.8200828025477708
sg5
F0.10429299363057325
sg6
F0.05495445859872613
ssS'December 18'
p35
(dp36
g3
F0.03378301886792453
sg4
F0.8749528301886792
sg5
F0.0912358490566038
sg6
F0.21044433962264153
ssS'February 16'
p37
(dp38
g3
F0.07456701030927834
sg4
F0.826319587628866
sg5
F0.09912371134020617
sg6
F0.081819587628866
ssS'December  -'
p39
(dp40
g3
F0.0
sg4
F0.9650000000000001
sg5
F0.035
sg6
F0.2553
ssS'February 24'
p41
(dp42
g3
F0.060234782608695664
sg4
F0.8474434782608696
sg5
F0.09232173913043475
sg6
F0.07682000000000004
ssS'February 15'
p43
(dp44
g3
F0.05957232704402515
sg4
F0.8398176100628931
sg5
F0.10059748427672954
sg6
F0.06287358490566038
ssS'February 06'
p45
(dp46
g3
F0.07988479262672814
sg4
F0.8170552995391698
sg5
F0.10305529953917049
sg6
F0.04428110599078341
ssS'February 11'
p47
(dp48
g3
F0.06554117647058823
sg4
F0.8529529411764707
sg5
F0.08151764705882357
sg6
F0.07776941176470589
ssS'February 17'
p49
(dp50
g3
F0.07554074074074073
sg4
F0.8204740740740745
sg5
F0.10398518518518517
sg6
F0.08634444444444446
ssS'January 17'
p51
(dp52
g3
F0.09765254237288133
sg4
F0.7943601694915258
sg5
F0.10797033898305089
sg6
F0.036469491525423725
ssS'January 16'
p53
(dp54
g3
F0.10384677419354837
sg4
F0.7883467741935488
sg5
F0.10780645161290325
sg6
F-0.003948387096774192
ssS'January 15'
p55
(dp56
g3
F0.06751428571428571
sg4
F0.8331428571428572
sg5
F0.09934285714285712
sg6
F0.09589142857142857
ssS'January 14'
p57
(dp58
g3
F0.05973076923076924
sg4
F0.8430641025641024
sg5
F0.0971923076923077
sg6
F0.15143076923076923
ssS'January 13'
p59
(dp60
g3
F0.062875
sg4
F0.8438214285714289
sg5
F0.09326785714285717
sg6
F0.07983035714285716
ssS'January 12'
p61
(dp62
g3
F0.0507037037037037
sg4
F0.8740740740740739
sg5
F0.07522222222222223
sg6
F0.06346666666666667
ssS'January 11'
p63
(dp64
g3
F0.09076315789473682
sg4
F0.8228596491228073
sg5
F0.08635087719298244
sg6
F0.030377192982456166
ssS'January 10'
p65
(dp66
g3
F0.06642657342657343
sg4
F0.8095734265734261
sg5
F0.08903496503496507
sg6
F0.07543006993006993
ssS'January 31'
p67
(dp68
g3
F0.09248888888888891
sg4
F0.8362666666666666
sg5
F0.0712
sg6
F0.06781333333333332
ssS'January 30'
p69
(dp70
g3
F0.0867470588235294
sg4
F0.8213882352941178
sg5
F0.0918882352941176
sg6
F0.013740588235294105
ssS'January 19'
p71
(dp72
g3
F0.05837962962962964
sg4
F0.8638888888888888
sg5
F0.07778703703703703
sg6
F0.07541666666666666
ssS'January 18'
p73
(dp74
g3
F0.07985344827586208
sg4
F0.8345431034482755
sg5
F0.08558620689655173
sg6
F0.015587931034482761
ssS'February 23'
p75
(dp76
g3
F0.057420634920634914
sg4
F0.8221984126984124
sg5
F0.12035714285714286
sg6
F0.1301809523809524
ssS'December 28'
p77
(dp78
g3
F0.04106194690265486
sg4
F0.854
sg5
F0.10497345132743362
sg6
F0.1897787610619469
ssS'December 29'
p79
(dp80
g3
F0.05387142857142855
sg4
F0.8683642857142859
sg5
F0.07774285714285716
sg6
F0.09771571428571431
ssS'February 19'
p81
(dp82
g3
F0.0611842105263158
sg4
F0.8518859649122809
sg5
F0.08695614035087719
sg6
F0.06608070175438596
ssS'January 28'
p83
(dp84
g3
F0.0707922077922078
sg4
F0.8468051948051947
sg5
F0.0824155844155844
sg6
F0.0800896103896104
ssS'February 04'
p85
(dp86
g3
F0.08965326633165828
sg4
F0.8053065326633164
sg5
F0.10501005025125629
sg6
F0.10366180904522612
ssS'December 22'
p87
(dp88
g3
F0.09249230769230768
sg4
F0.8047323076923077
sg5
F0.10276307692307693
sg6
F0.05636830769230765
ssS'December 23'
p89
(dp90
g3
F0.0785568862275449
sg4
F0.8498323353293417
sg5
F0.07163473053892218
sg6
F0.011851497005988016
ssS'December 20'
p91
(dp92
g3
F0.06760400000000001
sg4
F0.821204
sg5
F0.10719999999999995
sg6
F0.07227160000000003
ssS'December 21'
p93
(dp94
g3
F0.0867788778877888
sg4
F0.8116996699669966
sg5
F0.10151155115511545
sg6
F0.048537953795379535
ssS'December 26'
p95
(dp96
g3
F0.054619047619047616
sg4
F0.8408639455782313
sg5
F0.10453061224489797
sg6
F0.18539047619047613
ssS'December 27'
p97
(dp98
g3
F0.07111764705882354
sg4
F0.8566134453781513
sg5
F0.07231092436974787
sg6
F0.04199579831932775
ssS'December 24'
p99
(dp100
g3
F0.06542774566473988
sg4
F0.8238381502890173
sg5
F0.11073410404624282
sg6
F0.13045260115606933
ssS'December 02'
p101
(dp102
g3
F0.04358181818181817
sg4
F0.8641818181818179
sg5
F0.09223636363636364
sg6
F0.19500545454545454
ssS'December 03'
p103
(dp104
g3
F0.05654814814814813
sg4
F0.8547111111111111
sg5
F0.0887777777777778
sg6
F0.09654444444444446
ssS'December 05'
p105
(dp106
g3
F0.04201626016260161
sg4
F0.8486097560975611
sg5
F0.10937398373983744
sg6
F0.16787317073170738
ssS'December 06'
p107
(dp108
g3
F0.07762247838616715
sg4
F0.841481268011527
sg5
F0.08090489913544668
sg6
F0.05336167146974063
ssS'January 27'
p109
(dp110
g3
F0.04587037037037037
sg4
F0.8773518518518519
sg5
F0.07681481481481482
sg6
F0.1600203703703704
ssS'December 08'
p111
(dp112
g3
F0.08411557788944724
sg4
F0.8369447236180906
sg5
F0.07892462311557788
sg6
F0.053192964824120614
ssS'December 09'
p113
(dp114
g3
F0.08467841409691626
sg4
F0.8238722466960354
sg5
F0.08703083700440528
sg6
F0.04407356828193831
ssS'February 03'
p115
(dp116
g3
F0.05639805825242718
sg4
F0.8735242718446604
sg5
F0.0700776699029126
sg6
F0.052543689320388366
ssS'February 05'
p117
(dp118
g3
F0.08539357429718875
sg4
F0.8183775100401606
sg5
F0.09622891566265061
sg6
F0.02291044176706827
ssS'February 22'
p119
(dp120
g3
F0.0708051948051948
sg4
F0.8426558441558442
sg5
F0.08655194805194809
sg6
F0.07391103896103897
ssS'February 21'
p121
(dp122
g3
F0.08974125874125871
sg4
F0.7918671328671332
sg5
F0.11840559440559437
sg6
F0.06089720279720278
ssS'January 25'
p123
(dp124
g3
F0.07014666666666666
sg4
F0.8389466666666667
sg5
F0.09094666666666665
sg6
F0.11640400000000005
ssS'February 01'
p125
(dp126
g3
F0.10144537815126052
sg4
F0.7894285714285714
sg5
F0.10915126050420168
sg6
F0.048879831932773066
ssS'February 26'
p127
(dp128
g3
F0.052672000000000004
sg4
F0.8382799999999996
sg5
F0.10909600000000001
sg6
F0.16624559999999994
ssS'February 25'
p129
(dp130
g3
F0.07895604395604394
sg4
F0.8105384615384614
sg5
F0.11051648351648352
sg6
F0.04848241758241761
ssS'February 02'
p131
(dp132
g3
F0.06947179487179488
sg4
F0.8212205128205126
sg5
F0.10931794871794874
sg6
F0.12730461538461535
ssS'February 10'
p133
(dp134
g3
F0.1073923076923077
sg4
F0.7949230769230774
sg5
F0.09768461538461537
sg6
F0.06964307692307695
ssS'February 28'
p135
(dp136
g3
F0.08843434343434346
sg4
F0.7907878787878787
sg5
F0.12077777777777776
sg6
F0.07571212121212119
ssS'February 09'
p137
(dp138
g3
F0.05969620253164557
sg4
F0.8438987341772153
sg5
F0.09641772151898731
sg6
F0.07913227848101265
ssS'February 08'
p139
(dp140
g3
F0.08056363636363635
sg4
F0.8017000000000001
sg5
F0.1177272727272728
sg6
F0.031085454545454586
ssS'February 20'
p141
(dp142
g3
F0.10980136986301371
sg4
F0.7873904109589043
sg5
F0.10282876712328769
sg6
F0.005346575342465775
ssS'January 02'
p143
(dp144
g3
F0.04348484848484849
sg4
F0.8462121212121211
sg5
F0.1103030303030303
sg6
F0.20276363636363637
ssS'January 03'
p145
(dp146
g3
F0.019233333333333335
sg4
F0.8722666666666665
sg5
F0.10853333333333332
sg6
F0.16828666666666672
ssS'January 04'
p147
(dp148
g3
F0.05523684210526316
sg4
F0.870684210526316
sg5
F0.0740921052631579
sg6
F0.0709592105263158
ssS'January 05'
p149
(dp150
g3
F0.053140495867768596
sg4
F0.8560082644628099
sg5
F0.09084297520661161
sg6
F0.11882231404958678
ssS'January 06'
p151
(dp152
g3
F0.05958823529411764
sg4
F0.8650196078431374
sg5
F0.0753921568627451
sg6
F0.10347254901960784
ssS'January 07'
p153
(dp154
g3
F0.04576
sg4
F0.8836000000000002
sg5
F0.07064
sg6
F0.1220626666666667
ssS'January 26'
p155
(dp156
g3
F0.0764777777777778
sg4
F0.8607999999999999
sg5
F0.0627111111111111
sg6
F0.009464444444444449
ssS'December 31'
p157
(dp158
g3
F0.03388775510204081
sg4
F0.834704081632653
sg5
F0.13141836734693876
sg6
F0.2368010204081633
ssS'January 24'
p159
(dp160
g3
F0.07131081081081081
sg4
F0.833472972972973
sg5
F0.0951891891891892
sg6
F0.1419256756756757
ssS'January 21'
p161
(dp162
g3
F0.09797701149425288
sg4
F0.8328390804597701
sg5
F0.06917241379310346
sg6
F0.0072793103448275985
ssS'January 22'
p163
(dp164
g3
F0.07496341463414637
sg4
F0.7980853658536583
sg5
F0.11479268292682925
sg6
F0.09515609756097564
ssS'January 23'
p165
(dp166
g3
F0.0763658536585366
sg4
F0.8218292682926829
sg5
F0.10180487804878051
sg6
F0.07471382113821136
ssS'January 20'
p167
(dp168
g3
F0.0829090909090909
sg4
F0.8481060606060608
sg5
F0.0689848484848485
sg6
F-0.02282878787878788
ssS'December 30'
p169
(dp170
g3
F0.08729565217391307
sg4
F0.823886956521739
sg5
F0.08877391304347829
sg6
F0.07351478260869564
ss.